Certificate:
    Data:
        Version: 1 (0x0)
        Serial Number: 1 (0x1)
        Signature Algorithm: ecdsa-with-SHA384
        Issuer: C=US, ST=CA, L=Sunnyvale, O=Real Time Innovations, CN=CA Cert World/emailAddress=secure@rti.com
        Validity
            Not Before: May  3 20:50:45 2023 GMT
            Not After : Apr 30 20:50:45 2033 GMT
        Subject: C=US, ST=CA, O=Real Time Innovations, CN=triwriter/emailAddress=triwriter@rti.com
        Subject Public Key Info:
            Public Key Algorithm: id-ecPublicKey
                Public-Key: (384 bit)
                pub:
                    04:11:2c:94:61:6c:64:c0:c2:82:13:01:ea:34:0a:
                    0e:ab:30:5d:2f:28:96:52:a9:51:ff:4a:ca:44:35:
                    5a:f7:95:de:93:11:4a:aa:72:51:2a:1c:6b:65:cd:
                    a0:57:85:29:69:47:fc:77:cf:2f:17:c2:4f:fb:fb:
                    29:fc:7f:45:ba:23:fa:3a:ed:e0:f3:03:fb:84:e9:
                    2d:1b:ed:a0:b9:5c:5b:67:83:4f:2c:9a:ec:19:61:
                    94:2e:73:6b:c4:75:7e
                ASN1 OID: secp384r1
                NIST CURVE: P-384
    Signature Algorithm: ecdsa-with-SHA384
    Signature Value:
        30:65:02:31:00:af:9c:17:92:6f:29:a9:a8:40:8d:99:9d:5a:
        1e:3a:6b:65:fb:83:b0:a9:ca:3d:4c:ed:1e:92:0d:bb:ab:16:
        91:2e:ed:c4:59:5e:3a:d1:af:54:c5:1a:8c:fc:7b:ac:ae:02:
        30:7d:aa:61:bf:32:b0:e2:9d:6d:dc:95:d5:ea:24:33:5a:ac:
        d7:eb:18:3e:2c:8e:5b:77:39:c6:86:67:9a:dd:58:57:98:d5:
        c7:28:c2:0b:bd:ab:8a:59:d6:ec:28:09:30
-----BEGIN CERTIFICATE-----
MIICGzCCAaECAQEwCgYIKoZIzj0EAwMwgYUxCzAJBgNVBAYTAlVTMQswCQYDVQQI
DAJDQTESMBAGA1UEBwwJU3Vubnl2YWxlMR4wHAYDVQQKDBVSZWFsIFRpbWUgSW5u
b3ZhdGlvbnMxFjAUBgNVBAMMDUNBIENlcnQgV29ybGQxHTAbBgkqhkiG9w0BCQEW
DnNlY3VyZUBydGkuY29tMB4XDTIzMDUwMzIwNTA0NVoXDTMzMDQzMDIwNTA0NVow
cDELMAkGA1UEBhMCVVMxCzAJBgNVBAgMAkNBMR4wHAYDVQQKDBVSZWFsIFRpbWUg
SW5ub3ZhdGlvbnMxEjAQBgNVBAMMCXRyaXdyaXRlcjEgMB4GCSqGSIb3DQEJARYR
dHJpd3JpdGVyQHJ0aS5jb20wdjAQBgcqhkjOPQIBBgUrgQQAIgNiAAQRLJRhbGTA
woITAeo0Cg6rMF0vKJZSqVH/SspENVr3ld6TEUqqclEqHGtlzaBXhSlpR/x3zy8X
wk/7+yn8f0W6I/o67eDzA/uE6S0b7aC5XFtng08smuwZYZQuc2vEdX4wCgYIKoZI
zj0EAwMDaAAwZQIxAK+cF5JvKamoQI2ZnVoeOmtl+4Owqco9TO0ekg27qxaRLu3E
WV460a9UxRqM/HusrgIwfaphvzKw4p1t3JXV6iQzWqzX6xg+LI5bdznGhmea3VhX
mNXHKMILvauKWdbsKAkw
-----END CERTIFICATE-----
