Certificate:
    Data:
        Version: 1 (0x0)
        Serial Number: 1 (0x1)
        Signature Algorithm: ecdsa-with-SHA256
        Issuer: C=US, ST=CA, L=Sunnyvale, O=Real Time Innovations, CN=CA Cert World/emailAddress=secure@rti.com
        Validity
            Not Before: Aug 24 21:13:46 2023 GMT
            Not After : Aug 21 21:13:46 2033 GMT
        Subject: C=US, ST=CA, O=Real Time Innovations, CN=triwriter/emailAddress=triwriter@rti.com
        Subject Public Key Info:
            Public Key Algorithm: id-ecPublicKey
                Public-Key: (256 bit)
                pub:
                    04:69:15:c9:02:4e:cb:d8:25:10:36:f4:50:a0:ec:
                    33:94:b1:4f:6b:9a:a2:60:15:3a:29:b2:74:69:74:
                    47:ff:af:a0:1d:b0:b6:2f:73:d3:75:54:cb:68:05:
                    f4:af:87:12:e5:32:50:0a:fd:d0:ec:6f:b2:64:e1:
                    50:b9:e1:88:f7
                ASN1 OID: prime256v1
                NIST CURVE: P-256
    Signature Algorithm: ecdsa-with-SHA256
    Signature Value:
        30:44:02:20:1a:71:7c:c8:e8:ae:c3:1a:cf:39:b8:75:44:d7:
        e2:ed:60:01:3c:4f:1a:1d:11:9c:ef:07:24:9e:63:84:a5:4b:
        02:20:5d:4f:4a:e1:88:60:8b:b0:71:05:cd:06:a1:b1:b4:ff:
        d4:da:2b:44:c1:6a:b6:2f:66:4e:0e:ec:58:df:68:52
-----BEGIN CERTIFICATE-----
MIIB3TCCAYQCAQEwCgYIKoZIzj0EAwIwgYUxCzAJBgNVBAYTAlVTMQswCQYDVQQI
DAJDQTESMBAGA1UEBwwJU3Vubnl2YWxlMR4wHAYDVQQKDBVSZWFsIFRpbWUgSW5u
b3ZhdGlvbnMxFjAUBgNVBAMMDUNBIENlcnQgV29ybGQxHTAbBgkqhkiG9w0BCQEW
DnNlY3VyZUBydGkuY29tMB4XDTIzMDgyNDIxMTM0NloXDTMzMDgyMTIxMTM0Nlow
cDELMAkGA1UEBhMCVVMxCzAJBgNVBAgMAkNBMR4wHAYDVQQKDBVSZWFsIFRpbWUg
SW5ub3ZhdGlvbnMxEjAQBgNVBAMMCXRyaXdyaXRlcjEgMB4GCSqGSIb3DQEJARYR
dHJpd3JpdGVyQHJ0aS5jb20wWTATBgcqhkjOPQIBBggqhkjOPQMBBwNCAARpFckC
TsvYJRA29FCg7DOUsU9rmqJgFTopsnRpdEf/r6AdsLYvc9N1VMtoBfSvhxLlMlAK
/dDsb7Jk4VC54Yj3MAoGCCqGSM49BAMCA0cAMEQCIBpxfMjorsMazzm4dUTX4u1g
ATxPGh0RnO8HJJ5jhKVLAiBdT0rhiGCLsHEFzQahsbT/1NorRMFqti9mTg7sWN9o
Ug==
-----END CERTIFICATE-----
