Certificate:
    Data:
        Version: 1 (0x0)
        Serial Number: 2 (0x2)
        Signature Algorithm: sha256WithRSAEncryption
        Issuer: C=US, ST=CA, L=Sunnyvale, O=Real Time Innovations, CN=CA Cert World/emailAddress=secure@rti.com
        Validity
            Not Before: May 17 22:18:21 2020 GMT
            Not After : May 17 22:18:21 2021 GMT
        Subject: C=US, ST=NC, O=Real Time Innovations, CN=trireader/emailAddress=trireader@rti.com
        Subject Public Key Info:
            Public Key Algorithm: rsaEncryption
                RSA Public-Key: (2048 bit)
                Modulus:
                    00:b6:ab:e3:21:4d:70:f7:93:cc:03:ab:fb:fc:24:
                    69:e0:ef:c9:f9:60:c0:49:08:54:85:00:03:c9:41:
                    a7:be:b1:58:71:e4:14:dc:e8:8b:ca:f9:80:0b:11:
                    6e:b5:b5:49:24:a8:fe:ed:af:2e:52:99:5e:37:3a:
                    07:1a:0a:b1:0a:6b:0a:03:b9:bf:22:5a:71:36:8e:
                    e4:1b:db:c8:0a:4b:7f:e9:9c:8c:87:45:9e:f9:db:
                    53:eb:7d:1b:5c:e2:0b:6a:99:ce:d6:19:be:fe:75:
                    58:9b:cb:9d:46:82:2a:97:f7:7b:31:14:20:a8:eb:
                    03:62:78:f1:28:bd:b0:6f:d9:77:e0:d0:ff:16:3b:
                    76:b0:95:27:d4:97:bf:e8:36:bd:96:3e:ff:21:f5:
                    3a:00:2c:91:80:96:75:19:7b:e3:b4:94:23:72:c8:
                    7e:d9:c2:dd:ea:60:5f:a1:d7:c8:61:1f:8a:84:dd:
                    2a:6e:ac:c4:9f:36:84:f0:90:ca:9f:d0:5b:c6:26:
                    6d:a2:ba:88:e4:42:54:6a:1c:91:10:fb:8e:3e:f2:
                    ac:42:84:96:e2:8a:1d:19:c4:d7:7f:79:45:08:74:
                    81:13:a9:22:64:90:9a:3c:96:a9:5d:4f:07:bc:50:
                    76:f6:af:3b:06:37:d4:58:e6:02:79:45:55:a1:38:
                    a3:c5
                Exponent: 65537 (0x10001)
    Signature Algorithm: sha256WithRSAEncryption
         17:ff:82:c5:2f:6d:26:52:65:31:1b:16:2a:27:2d:07:5d:d1:
         70:87:b3:c7:d9:d5:98:58:16:7e:61:de:56:95:08:de:fe:cb:
         02:b6:f0:9a:03:12:af:42:51:91:58:57:8e:db:bb:27:90:44:
         7a:a9:4c:7a:af:98:2f:fa:ca:5f:09:68:8e:a4:f9:3b:0b:91:
         6b:99:2f:86:f8:47:4b:96:cf:2c:3e:8b:34:68:96:41:65:ad:
         0d:2a:b0:10:1c:7c:9a:e8:16:c2:f2:17:26:31:8e:89:b6:c0:
         d3:f9:8d:7d:de:c5:35:4c:57:9e:65:2d:bd:89:17:fa:ee:c2:
         35:4f:3b:9d:26:f6:88:3e:5b:e5:7f:ea:a5:2a:89:af:b5:33:
         02:c4:51:b4:28:fc:80:e2:e6:e3:ae:85:40:ed:f8:97:e2:ae:
         6e:2c:e5:b4:65:51:8a:44:ed:e4:ba:90:96:2e:69:cc:a3:af:
         0b:05:01:4d:21:45:f4:73:a6:ea:79:98:4e:1c:8c:86:80:3d:
         d0:d4:70:33:bb:25:b1:36:02:c6:2e:c8:7c:72:5f:a3:e9:0b:
         6d:1d:a9:70:90:30:ab:e7:10:2b:34:a4:72:48:c9:55:3b:f7:
         8d:17:6d:ee:76:ff:90:5b:6a:f6:e9:9b:53:e6:d6:b4:d9:d4:
         ca:6b:ef:2d
-----BEGIN CERTIFICATE-----
MIIDajCCAlICAQIwDQYJKoZIhvcNAQELBQAwgYUxCzAJBgNVBAYTAlVTMQswCQYD
VQQIDAJDQTESMBAGA1UEBwwJU3Vubnl2YWxlMR4wHAYDVQQKDBVSZWFsIFRpbWUg
SW5ub3ZhdGlvbnMxFjAUBgNVBAMMDUNBIENlcnQgV29ybGQxHTAbBgkqhkiG9w0B
CQEWDnNlY3VyZUBydGkuY29tMB4XDTIwMDUxNzIyMTgyMVoXDTIxMDUxNzIyMTgy
MVowcDELMAkGA1UEBhMCVVMxCzAJBgNVBAgMAk5DMR4wHAYDVQQKDBVSZWFsIFRp
bWUgSW5ub3ZhdGlvbnMxEjAQBgNVBAMMCXRyaXJlYWRlcjEgMB4GCSqGSIb3DQEJ
ARYRdHJpcmVhZGVyQHJ0aS5jb20wggEiMA0GCSqGSIb3DQEBAQUAA4IBDwAwggEK
AoIBAQC2q+MhTXD3k8wDq/v8JGng78n5YMBJCFSFAAPJQae+sVhx5BTc6IvK+YAL
EW61tUkkqP7try5SmV43OgcaCrEKawoDub8iWnE2juQb28gKS3/pnIyHRZ7521Pr
fRtc4gtqmc7WGb7+dViby51GgiqX93sxFCCo6wNiePEovbBv2Xfg0P8WO3awlSfU
l7/oNr2WPv8h9ToALJGAlnUZe+O0lCNyyH7Zwt3qYF+h18hhH4qE3SpurMSfNoTw
kMqf0FvGJm2iuojkQlRqHJEQ+44+8qxChJbiih0ZxNd/eUUIdIETqSJkkJo8lqld
Twe8UHb2rzsGN9RY5gJ5RVWhOKPFAgMBAAEwDQYJKoZIhvcNAQELBQADggEBABf/
gsUvbSZSZTEbFionLQdd0XCHs8fZ1ZhYFn5h3laVCN7+ywK28JoDEq9CUZFYV47b
uyeQRHqpTHqvmC/6yl8JaI6k+TsLkWuZL4b4R0uWzyw+izRolkFlrQ0qsBAcfJro
FsLyFyYxjom2wNP5jX3exTVMV55lLb2JF/ruwjVPO50m9og+W+V/6qUqia+1MwLE
UbQo/IDi5uOuhUDt+Jfirm4s5bRlUYpE7eS6kJYuacyjrwsFAU0hRfRzpup5mE4c
jIaAPdDUcDO7JbE2AsYuyHxyX6PpC20dqXCQMKvnECs0pHJIyVU7940Xbe52/5Bb
avbpm1Pm1rTZ1Mpr7y0=
-----END CERTIFICATE-----
