Certificate:
    Data:
        Version: 1 (0x0)
        Serial Number: 3 (0x3)
        Signature Algorithm: ecdsa-with-SHA384
        Issuer: C=US, ST=CA, L=Sunnyvale, O=Real Time Innovations, CN=CA Cert World/emailAddress=secure@rti.com
        Validity
            Not Before: May  3 20:51:56 2023 GMT
            Not After : Apr 30 20:51:56 2033 GMT
        Subject: C=US, ST=CA, O=Real Time Innovations, CN=tools/emailAddress=tools@rti.com
        Subject Public Key Info:
            Public Key Algorithm: id-ecPublicKey
                Public-Key: (384 bit)
                pub:
                    04:0e:d6:08:5e:23:0c:7f:22:40:d9:fe:bf:dc:48:
                    ef:88:b8:7f:03:15:30:9b:7c:33:2d:ac:7f:47:6e:
                    f0:7e:ec:d0:2a:8c:99:96:de:24:e3:bc:32:90:bc:
                    ee:3c:3c:cd:fc:f5:11:fe:1e:d9:cb:30:67:11:28:
                    ff:c7:4e:62:fb:a9:91:ca:2a:50:df:8e:3e:27:7e:
                    f9:a5:52:52:1f:85:1d:38:1c:87:66:61:a7:b8:a7:
                    2b:fb:01:61:e5:45:34
                ASN1 OID: secp384r1
                NIST CURVE: P-384
    Signature Algorithm: ecdsa-with-SHA384
    Signature Value:
        30:64:02:30:46:3e:27:28:e8:a4:b6:96:2b:78:1f:33:9f:b8:
        e0:bb:4b:df:af:fd:79:40:62:58:83:4a:be:1b:b9:de:18:06:
        d0:03:79:d8:fc:84:be:eb:c0:c5:3e:55:e1:2f:c5:93:02:30:
        31:f7:13:5e:43:ad:a1:bc:75:77:03:d3:56:23:69:a4:54:a4:
        d3:b4:8b:b3:a9:55:33:6e:36:a1:31:55:03:ed:2f:1b:88:08:
        d9:b9:83:06:5e:74:46:88:c3:d1:2d:86
-----BEGIN CERTIFICATE-----
MIICEjCCAZkCAQMwCgYIKoZIzj0EAwMwgYUxCzAJBgNVBAYTAlVTMQswCQYDVQQI
DAJDQTESMBAGA1UEBwwJU3Vubnl2YWxlMR4wHAYDVQQKDBVSZWFsIFRpbWUgSW5u
b3ZhdGlvbnMxFjAUBgNVBAMMDUNBIENlcnQgV29ybGQxHTAbBgkqhkiG9w0BCQEW
DnNlY3VyZUBydGkuY29tMB4XDTIzMDUwMzIwNTE1NloXDTMzMDQzMDIwNTE1Nlow
aDELMAkGA1UEBhMCVVMxCzAJBgNVBAgMAkNBMR4wHAYDVQQKDBVSZWFsIFRpbWUg
SW5ub3ZhdGlvbnMxDjAMBgNVBAMMBXRvb2xzMRwwGgYJKoZIhvcNAQkBFg10b29s
c0BydGkuY29tMHYwEAYHKoZIzj0CAQYFK4EEACIDYgAEDtYIXiMMfyJA2f6/3Ejv
iLh/AxUwm3wzLax/R27wfuzQKoyZlt4k47wykLzuPDzN/PUR/h7ZyzBnESj/x05i
+6mRyipQ344+J375pVJSH4UdOByHZmGnuKcr+wFh5UU0MAoGCCqGSM49BAMDA2cA
MGQCMEY+JyjopLaWK3gfM5+44LtL36/9eUBiWINKvhu53hgG0AN52PyEvuvAxT5V
4S/FkwIwMfcTXkOtobx1dwPTViNppFSk07SLs6lVM242oTFVA+0vG4gI2bmDBl50
RojD0S2G
-----END CERTIFICATE-----
