Certificate:
    Data:
        Version: 1 (0x0)
        Serial Number: 4 (0x4)
        Signature Algorithm: ecdsa-with-SHA256
        Issuer: C=US, ST=CA, L=Sunnyvale, O=Real Time Innovations, CN=CA Cert World/emailAddress=secure@rti.com
        Validity
            Not Before: Aug 28 19:25:05 2020 GMT
            Not After : Aug 26 19:25:05 2030 GMT
        Subject: C=US, ST=CA, O=Real Time Innovations, CN=routing/emailAddress=routing@rti.com
        Subject Public Key Info:
            Public Key Algorithm: id-ecPublicKey
                Public-Key: (256 bit)
                pub:
                    04:f9:b7:9f:06:cf:d3:c3:db:fc:93:36:8a:43:23:
                    fd:e1:f9:27:15:22:33:1c:0d:98:f1:31:81:5a:f9:
                    bd:ff:3f:cc:bd:e3:09:89:55:5d:33:99:e0:29:2d:
                    db:a1:f4:b5:9c:b5:2f:f7:85:ab:95:30:62:16:a2:
                    99:87:ae:17:7c
                ASN1 OID: secp256k1
    Signature Algorithm: ecdsa-with-SHA256
         30:46:02:21:00:9a:9e:49:30:b9:91:5e:3c:38:db:f5:67:f3:
         34:34:af:e7:29:22:fa:d3:54:60:8e:7b:11:7c:2c:9d:5b:e5:
         49:02:21:00:c1:79:82:1a:78:af:4d:2e:fe:c2:32:d0:af:53:
         57:80:bf:20:a5:11:db:30:14:50:f1:01:64:95:6b:70:ed:02
-----BEGIN CERTIFICATE-----
MIIB2DCCAX0CAQQwCgYIKoZIzj0EAwIwgYUxCzAJBgNVBAYTAlVTMQswCQYDVQQI
DAJDQTESMBAGA1UEBwwJU3Vubnl2YWxlMR4wHAYDVQQKDBVSZWFsIFRpbWUgSW5u
b3ZhdGlvbnMxFjAUBgNVBAMMDUNBIENlcnQgV29ybGQxHTAbBgkqhkiG9w0BCQEW
DnNlY3VyZUBydGkuY29tMB4XDTIwMDgyODE5MjUwNVoXDTMwMDgyNjE5MjUwNVow
bDELMAkGA1UEBhMCVVMxCzAJBgNVBAgMAkNBMR4wHAYDVQQKDBVSZWFsIFRpbWUg
SW5ub3ZhdGlvbnMxEDAOBgNVBAMMB3JvdXRpbmcxHjAcBgkqhkiG9w0BCQEWD3Jv
dXRpbmdAcnRpLmNvbTBWMBAGByqGSM49AgEGBSuBBAAKA0IABPm3nwbP08Pb/JM2
ikMj/eH5JxUiMxwNmPExgVr5vf8/zL3jCYlVXTOZ4Ckt26H0tZy1L/eFq5UwYhai
mYeuF3wwCgYIKoZIzj0EAwIDSQAwRgIhAJqeSTC5kV48ONv1Z/M0NK/nKSL601Rg
jnsRfCydW+VJAiEAwXmCGnivTS7+wjLQr1NXgL8gpRHbMBRQ8QFklWtw7QI=
-----END CERTIFICATE-----
