Certificate:
    Data:
        Version: 1 (0x0)
        Serial Number:
            36:8e:46:3b:72:e6:6e:2c:8f:ef:c2:db:76:e5:7d:3a:df:19:11:90
        Signature Algorithm: ecdsa-with-SHA256
        Issuer: C = US, ST = CA, L = Sunnyvale, O = Real Time Innovations, CN = CA Cert World, emailAddress = secure@rti.com
        Validity
            Not Before: Aug 24 20:40:28 2023 GMT
            Not After : Aug 21 20:40:28 2033 GMT
        Subject: C = US, ST = CA, L = Sunnyvale, O = Real Time Innovations, CN = CA Cert World, emailAddress = secure@rti.com
        Subject Public Key Info:
            Public Key Algorithm: id-ecPublicKey
                Public-Key: (256 bit)
                pub:
                    04:cf:f3:db:eb:b6:d2:74:b7:1f:8d:3c:91:45:aa:
                    3c:2d:3d:51:5e:09:e7:e4:43:d2:34:dc:98:2d:66:
                    d9:90:ca:6c:9b:5a:4a:0b:f3:cc:b1:2c:e1:19:00:
                    f9:e6:5c:d1:dc:b3:73:95:95:2e:7a:cd:68:1a:80:
                    eb:93:07:0b:77
                ASN1 OID: prime256v1
                NIST CURVE: P-256
    Signature Algorithm: ecdsa-with-SHA256
    Signature Value:
        30:44:02:20:57:a6:99:7c:87:83:48:8b:cf:f9:70:6c:8a:27:
        5d:3f:38:7c:ed:80:c9:cc:6a:57:a1:ee:85:95:5f:95:a8:a7:
        02:20:45:ce:a8:55:95:24:21:b4:f6:56:68:78:75:e3:46:e5:
        6e:83:87:83:6d:93:4b:71:7d:32:18:f3:2e:22:87:4e
-----BEGIN CERTIFICATE-----
MIICBjCCAa0CFDaORjty5m4sj+/C23blfTrfGRGQMAoGCCqGSM49BAMCMIGFMQsw
CQYDVQQGEwJVUzELMAkGA1UECAwCQ0ExEjAQBgNVBAcMCVN1bm55dmFsZTEeMBwG
A1UECgwVUmVhbCBUaW1lIElubm92YXRpb25zMRYwFAYDVQQDDA1DQSBDZXJ0IFdv
cmxkMR0wGwYJKoZIhvcNAQkBFg5zZWN1cmVAcnRpLmNvbTAeFw0yMzA4MjQyMDQw
MjhaFw0zMzA4MjEyMDQwMjhaMIGFMQswCQYDVQQGEwJVUzELMAkGA1UECAwCQ0Ex
EjAQBgNVBAcMCVN1bm55dmFsZTEeMBwGA1UECgwVUmVhbCBUaW1lIElubm92YXRp
b25zMRYwFAYDVQQDDA1DQSBDZXJ0IFdvcmxkMR0wGwYJKoZIhvcNAQkBFg5zZWN1
cmVAcnRpLmNvbTBZMBMGByqGSM49AgEGCCqGSM49AwEHA0IABM/z2+u20nS3H408
kUWqPC09UV4J5+RD0jTcmC1m2ZDKbJtaSgvzzLEs4RkA+eZc0dyzc5WVLnrNaBqA
65MHC3cwCgYIKoZIzj0EAwIDRwAwRAIgV6aZfIeDSIvP+XBsiiddPzh87YDJzGpX
oe6FlV+VqKcCIEXOqFWVJCG09lZoeHXjRuVug4eDbZNLcX0yGPMuIodO
-----END CERTIFICATE-----
