Certificate:
    Data:
        Version: 1 (0x0)
        Serial Number:
            0e:13:c9:b6:ba:cb:0e:84:22:c0:93:5f:b9:64:32:8a:1d:7b:30:dd
        Signature Algorithm: NULL
        Issuer: C = US, ST = CA, L = Sunnyvale, O = Real Time Innovations, CN = CA Cert World, emailAddress = secure@rti.com
        Validity
            Not Before: Jun 15 20:35:20 2020 GMT
            Not After : Jun 13 20:35:20 2030 GMT
        Subject: C = US, ST = CA, L = Sunnyvale, O = Real Time Innovations, CN = CA Cert World, emailAddress = secure@rti.com
        Subject Public Key Info:
            Public Key Algorithm: id-ecPublicKey
                Public-Key: (256 bit)
                pub:
                    04:17:fa:9e:ed:43:f6:f8:30:18:88:72:eb:32:e1:
                    ee:53:97:0a:34:01:8a:29:c0:23:04:71:59:ce:10:
                    0b:a2:92:7d:f4:7b:3f:96:85:17:41:cf:bd:0c:be:
                    e7:5a:b7:53:24:84:15:6d:24:0b:96:46:75:38:81:
                    3b:9a:f9:51:4f
                ASN1 OID: secp256k1
    Signature Algorithm: NULL
-----BEGIN CERTIFICATE-----
MIICBDCCAaoCFA4Tyba6yw6EIsCTX7lkMoodezDdMAoGCCqGSM49BAMCMIGFMQsw
CQYDVQQGEwJVUzELMAkGA1UECAwCQ0ExEjAQBgNVBAcMCVN1bm55dmFsZTEeMBwG
A1UECgwVUmVhbCBUaW1lIElubm92YXRpb25zMRYwFAYDVQQDDA1DQSBDZXJ0IFdv
cmxkMR0wGwYJKoZIhvcNAQkBFg5zZWN1cmVAcnRpLmNvbTAeFw0yMDA2MTUyMDM1
MjBaFw0zMDA2MTMyMDM1MjBaMIGFMQswCQYDVQQGEwJVUzELMAkGA1UECAwCQ0Ex
EjAQBgNVBAcMCVN1bm55dmFsZTEeMBwGA1UECgwVUmVhbCBUaW1lIElubm92YXRp
b25zMRYwFAYDVQQDDA1DQSBDZXJ0IFdvcmxkMR0wGwYJKoZIhvcNAQkBFg5zZWN1
cmVAcnRpLmNvbTBWMBAGByqGSM49AgEGBSuBBAAKA0IABBf6nu1D9vgwGIhy6zLh
7lOXCjQBiinAIwRxWc4QC6KSffR7P5aFF0HPvQy+51q3UySEFW0kC5ZGdTiBO5r5
UU8wCgYIKoZIzj0EAwIDSAAwRQIgTTfJHLA9RIF24n2GuiSdcZp5vahvJyjYMdrK
EokZy4sCIQDpGBH22/fa+PqlAorTmUlph0r7wbn9Y93d4+CJ2eIpow==
-----END CERTIFICATE-----
