Certificate:
    Data:
        Version: 1 (0x0)
        Serial Number:
            38:7c:31:db:45:07:65:ce:47:65:cb:59:27:c8:33:7a:2b:31:16:f9
        Signature Algorithm: ecdsa-with-SHA256
        Issuer: C = US, ST = CA, L = Sunnyvale, O = Real Time Innovations, CN = RTI Cert World, emailAddress = permissions@rti.com
        Validity
            Not Before: Aug 24 20:44:08 2023 GMT
            Not After : Aug 21 20:44:08 2033 GMT
        Subject: C = US, ST = CA, L = Sunnyvale, O = Real Time Innovations, CN = RTI Cert World, emailAddress = permissions@rti.com
        Subject Public Key Info:
            Public Key Algorithm: id-ecPublicKey
                Public-Key: (256 bit)
                pub:
                    04:11:8e:89:eb:13:f8:27:8c:8a:e7:a6:a7:28:1c:
                    45:da:dc:5f:35:0c:5f:e7:a8:c1:e0:6f:79:6a:90:
                    44:c2:38:e2:b9:60:3f:e0:a6:9f:9a:59:be:2a:1d:
                    91:5f:64:73:0e:1f:fa:2b:4b:34:81:eb:4f:9e:44:
                    2f:52:4e:89:7a
                ASN1 OID: prime256v1
                NIST CURVE: P-256
    Signature Algorithm: ecdsa-with-SHA256
    Signature Value:
        30:46:02:21:00:ab:ac:fd:36:f3:36:d6:5c:85:9e:78:69:e8:
        d0:35:dd:1b:71:25:21:bf:e4:5a:6b:fd:5c:d8:4f:87:26:41:
        e0:02:21:00:b8:92:06:6a:7c:d5:69:fa:4f:8d:ed:ae:47:8f:
        9b:ac:8e:8c:43:da:21:68:90:20:f3:33:49:d0:c0:c2:22:2d
-----BEGIN CERTIFICATE-----
MIICFDCCAbkCFDh8MdtFB2XOR2XLWSfIM3orMRb5MAoGCCqGSM49BAMCMIGLMQsw
CQYDVQQGEwJVUzELMAkGA1UECAwCQ0ExEjAQBgNVBAcMCVN1bm55dmFsZTEeMBwG
A1UECgwVUmVhbCBUaW1lIElubm92YXRpb25zMRcwFQYDVQQDDA5SVEkgQ2VydCBX
b3JsZDEiMCAGCSqGSIb3DQEJARYTcGVybWlzc2lvbnNAcnRpLmNvbTAeFw0yMzA4
MjQyMDQ0MDhaFw0zMzA4MjEyMDQ0MDhaMIGLMQswCQYDVQQGEwJVUzELMAkGA1UE
CAwCQ0ExEjAQBgNVBAcMCVN1bm55dmFsZTEeMBwGA1UECgwVUmVhbCBUaW1lIElu
bm92YXRpb25zMRcwFQYDVQQDDA5SVEkgQ2VydCBXb3JsZDEiMCAGCSqGSIb3DQEJ
ARYTcGVybWlzc2lvbnNAcnRpLmNvbTBZMBMGByqGSM49AgEGCCqGSM49AwEHA0IA
BBGOiesT+CeMiuempygcRdrcXzUMX+eoweBveWqQRMI44rlgP+Cmn5pZviodkV9k
cw4f+itLNIHrT55EL1JOiXowCgYIKoZIzj0EAwIDSQAwRgIhAKus/TbzNtZchZ54
aejQNd0bcSUhv+Raa/1c2E+HJkHgAiEAuJIGanzVafpPje2uR4+brI6MQ9ohaJAg
8zNJ0MDCIi0=
-----END CERTIFICATE-----
