Certificate:
    Data:
        Version: 1 (0x0)
        Serial Number:
            5c:33:28:05:b5:3c:92:c3:a5:bb:48:50:9e:30:be:43:8f:d3:46:60
        Signature Algorithm: ecdsa-with-SHA384
        Issuer: C = US, ST = CA, L = Sunnyvale, O = Real Time Innovations, CN = RTI Cert World, emailAddress = permissions@rti.com
        Validity
            Not Before: May  3 20:50:09 2023 GMT
            Not After : Apr 30 20:50:09 2033 GMT
        Subject: C = US, ST = CA, L = Sunnyvale, O = Real Time Innovations, CN = RTI Cert World, emailAddress = permissions@rti.com
        Subject Public Key Info:
            Public Key Algorithm: id-ecPublicKey
                Public-Key: (384 bit)
                pub:
                    04:f4:41:88:c1:06:bf:db:c5:d6:9a:c9:d7:19:8d:
                    bc:93:f8:e9:25:4b:d8:45:8a:45:dd:a6:d0:68:1c:
                    50:b3:98:b2:45:3a:35:10:b3:04:67:a0:8f:82:4c:
                    d1:37:82:5f:f6:5a:d1:44:04:f9:52:08:f7:59:cf:
                    43:e5:23:42:ae:45:87:a0:03:18:59:ff:56:d7:37:
                    4c:88:67:83:38:47:cf:54:a2:b9:9e:1d:ec:ec:b5:
                    dd:e2:08:79:e5:6b:4c
                ASN1 OID: secp384r1
                NIST CURVE: P-384
    Signature Algorithm: ecdsa-with-SHA384
    Signature Value:
        30:65:02:31:00:e8:bd:b7:73:ba:e9:d3:e7:07:97:48:c9:b0:
        aa:4b:44:06:8c:ba:3d:62:91:f5:07:db:1d:e3:81:4b:ed:49:
        42:30:69:72:df:f1:97:c9:d6:56:03:2e:b9:90:0c:80:4a:02:
        30:0e:cd:99:d9:e0:22:89:a6:92:e0:97:0c:dc:00:66:59:8c:
        98:8c:75:ee:0f:18:cb:96:c6:1a:50:ab:66:2b:b2:80:39:42:
        92:de:3b:47:88:57:0b:b1:d2:5f:9e:60:f9
-----BEGIN CERTIFICATE-----
MIICUDCCAdYCFFwzKAW1PJLDpbtIUJ4wvkOP00ZgMAoGCCqGSM49BAMDMIGLMQsw
CQYDVQQGEwJVUzELMAkGA1UECAwCQ0ExEjAQBgNVBAcMCVN1bm55dmFsZTEeMBwG
A1UECgwVUmVhbCBUaW1lIElubm92YXRpb25zMRcwFQYDVQQDDA5SVEkgQ2VydCBX
b3JsZDEiMCAGCSqGSIb3DQEJARYTcGVybWlzc2lvbnNAcnRpLmNvbTAeFw0yMzA1
MDMyMDUwMDlaFw0zMzA0MzAyMDUwMDlaMIGLMQswCQYDVQQGEwJVUzELMAkGA1UE
CAwCQ0ExEjAQBgNVBAcMCVN1bm55dmFsZTEeMBwGA1UECgwVUmVhbCBUaW1lIElu
bm92YXRpb25zMRcwFQYDVQQDDA5SVEkgQ2VydCBXb3JsZDEiMCAGCSqGSIb3DQEJ
ARYTcGVybWlzc2lvbnNAcnRpLmNvbTB2MBAGByqGSM49AgEGBSuBBAAiA2IABPRB
iMEGv9vF1prJ1xmNvJP46SVL2EWKRd2m0GgcULOYskU6NRCzBGegj4JM0TeCX/Za
0UQE+VII91nPQ+UjQq5Fh6ADGFn/Vtc3TIhngzhHz1SiuZ4d7Oy13eIIeeVrTDAK
BggqhkjOPQQDAwNoADBlAjEA6L23c7rp0+cHl0jJsKpLRAaMuj1ikfUH2x3jgUvt
SUIwaXLf8ZfJ1lYDLrmQDIBKAjAOzZnZ4CKJppLglwzcAGZZjJiMde4PGMuWxhpQ
q2YrsoA5QpLeO0eIVwux0l+eYPk=
-----END CERTIFICATE-----
