Certificate:
    Data:
        Version: 1 (0x0)
        Serial Number: 1 (0x1)
        Signature Algorithm: sha256WithRSAEncryption
        Issuer: C=US, ST=CA, L=Sunnyvale, O=Real Time Innovations, CN=CA Cert World/emailAddress=secure@rti.com
        Validity
            Not Before: May 17 22:12:00 2020 GMT
            Not After : May 17 22:12:00 2021 GMT
        Subject: C=US, ST=NC, O=Real Time Innovations, CN=triwriter/emailAddress=triwriter@rti.com
        Subject Public Key Info:
            Public Key Algorithm: rsaEncryption
                RSA Public-Key: (2048 bit)
                Modulus:
                    00:c0:04:26:b8:6b:91:58:55:0a:33:d7:ec:cf:9c:
                    9c:a9:ab:66:11:b5:6c:e4:6f:6c:b2:2c:9e:2e:97:
                    64:92:66:b6:33:3b:e4:9c:f9:c0:3b:e8:cd:81:0c:
                    e7:6e:4d:5f:61:56:20:66:4d:25:4b:f5:7a:1a:77:
                    5b:d6:de:8a:7c:93:44:88:d4:f2:f7:e8:c8:a7:c2:
                    bf:66:fe:f8:69:d1:e2:eb:a8:b6:ae:0c:e7:c0:70:
                    70:ab:05:6f:12:af:47:39:6d:95:8b:04:83:09:0f:
                    07:e2:1f:62:81:12:68:06:f5:9b:2b:29:4f:eb:df:
                    46:b3:e2:61:7a:84:99:e2:a9:5e:70:e6:e7:95:05:
                    36:65:d4:0d:84:f7:e1:f2:b3:c8:40:7a:40:8e:61:
                    84:c3:d0:24:ba:d0:23:82:1a:c7:45:85:a2:48:c1:
                    9a:00:31:1e:72:3e:18:48:71:ce:a4:e6:b7:4a:85:
                    48:ab:de:86:19:15:17:11:fe:3d:13:24:5b:5e:19:
                    93:4d:17:e6:f4:bf:f7:df:0c:2b:08:1a:6a:7f:1c:
                    84:d8:cd:cb:ea:24:13:fd:7c:e9:3b:a4:fc:5e:f9:
                    62:fe:e3:e9:f6:71:3a:d9:93:68:d9:33:32:b2:5c:
                    e1:1d:53:b6:33:8b:33:30:b3:02:fa:4c:97:b8:31:
                    d3:0d
                Exponent: 65537 (0x10001)
    Signature Algorithm: sha256WithRSAEncryption
         63:59:31:85:d5:b7:67:3d:94:55:4a:cf:ff:ae:80:4f:5a:f7:
         da:45:d6:63:f2:85:72:30:3a:b6:da:a7:da:2e:ff:ce:b9:f6:
         01:33:ab:a4:c9:5c:df:7f:8e:8e:f0:50:03:41:92:2b:5d:62:
         81:6f:8d:ef:da:4a:b2:53:62:12:d8:35:3f:d0:14:9c:b7:aa:
         26:bb:d8:90:d1:63:27:59:d0:7d:1a:92:b0:f8:54:5d:32:38:
         6d:4e:4f:ad:8e:47:62:6d:4a:94:55:ad:d3:d2:0a:96:25:16:
         21:35:03:af:61:f0:b0:36:42:32:c7:b3:53:a7:47:36:e9:4c:
         9e:1e:46:d6:bf:e5:b5:b9:4a:dc:5d:c7:b4:2d:8a:9b:c0:ec:
         b9:5d:c1:5d:0b:33:e4:d5:7a:cb:85:d9:ea:c5:f6:e1:9a:cd:
         88:75:93:a5:d2:cb:5b:90:ec:18:ca:fc:4a:5a:b8:d8:f1:d0:
         23:4f:95:ce:e6:0d:bd:35:c4:66:18:41:8e:68:8d:30:a9:98:
         43:b3:e1:32:39:bd:2d:3d:14:ee:f5:92:70:50:95:0e:93:98:
         58:7d:7b:98:51:53:65:80:88:08:bf:7b:73:57:89:26:c8:cd:
         fc:14:53:2c:cd:a8:4d:f7:15:f7:68:ae:c3:a3:b2:79:0e:ca:
         d7:1e:e6:fd
-----BEGIN CERTIFICATE-----
MIIDajCCAlICAQEwDQYJKoZIhvcNAQELBQAwgYUxCzAJBgNVBAYTAlVTMQswCQYD
VQQIDAJDQTESMBAGA1UEBwwJU3Vubnl2YWxlMR4wHAYDVQQKDBVSZWFsIFRpbWUg
SW5ub3ZhdGlvbnMxFjAUBgNVBAMMDUNBIENlcnQgV29ybGQxHTAbBgkqhkiG9w0B
CQEWDnNlY3VyZUBydGkuY29tMB4XDTIwMDUxNzIyMTIwMFoXDTIxMDUxNzIyMTIw
MFowcDELMAkGA1UEBhMCVVMxCzAJBgNVBAgMAk5DMR4wHAYDVQQKDBVSZWFsIFRp
bWUgSW5ub3ZhdGlvbnMxEjAQBgNVBAMMCXRyaXdyaXRlcjEgMB4GCSqGSIb3DQEJ
ARYRdHJpd3JpdGVyQHJ0aS5jb20wggEiMA0GCSqGSIb3DQEBAQUAA4IBDwAwggEK
AoIBAQDABCa4a5FYVQoz1+zPnJypq2YRtWzkb2yyLJ4ul2SSZrYzO+Sc+cA76M2B
DOduTV9hViBmTSVL9Xoad1vW3op8k0SI1PL36Minwr9m/vhp0eLrqLauDOfAcHCr
BW8Sr0c5bZWLBIMJDwfiH2KBEmgG9ZsrKU/r30az4mF6hJniqV5w5ueVBTZl1A2E
9+Hys8hAekCOYYTD0CS60COCGsdFhaJIwZoAMR5yPhhIcc6k5rdKhUir3oYZFRcR
/j0TJFteGZNNF+b0v/ffDCsIGmp/HITYzcvqJBP9fOk7pPxe+WL+4+n2cTrZk2jZ
MzKyXOEdU7YzizMwswL6TJe4MdMNAgMBAAEwDQYJKoZIhvcNAQELBQADggEBAGNZ
MYXVt2c9lFVKz/+ugE9a99pF1mPyhXIwOrbap9ou/8659gEzq6TJXN9/jo7wUANB
kitdYoFvje/aSrJTYhLYNT/QFJy3qia72JDRYydZ0H0akrD4VF0yOG1OT62OR2Jt
SpRVrdPSCpYlFiE1A69h8LA2QjLHs1OnRzbpTJ4eRta/5bW5Stxdx7QtipvA7Lld
wV0LM+TVesuF2erF9uGazYh1k6XSy1uQ7BjK/EpauNjx0CNPlc7mDb01xGYYQY5o
jTCpmEOz4TI5vS09FO71knBQlQ6TmFh9e5hRU2WAiAi/e3NXiSbIzfwUUyzNqE33
FfdorsOjsnkOytce5v0=
-----END CERTIFICATE-----
