Certificate:
    Data:
        Version: 1 (0x0)
        Serial Number: 3 (0x3)
        Signature Algorithm: ecdsa-with-SHA256
        Issuer: C=US, ST=CA, L=Sunnyvale, O=Real Time Innovations, CN=CA Cert World/emailAddress=secure@rti.com
        Validity
            Not Before: Jun 15 20:51:31 2020 GMT
            Not After : Jun 13 20:51:31 2030 GMT
        Subject: C=US, ST=CA, O=Real Time Innovations, CN=triwriter/emailAddress=triwriter@rti.com
        Subject Public Key Info:
            Public Key Algorithm: id-ecPublicKey
                Public-Key: (256 bit)
                pub:
                    04:64:6d:fb:b8:3c:00:91:c7:4d:9f:a4:24:34:76:
                    82:e7:e1:f7:32:05:d8:2e:8f:95:93:77:54:cb:3e:
                    88:81:20:34:22:d2:2a:06:a1:3d:d8:d8:59:c4:5c:
                    27:b3:37:76:31:6c:3f:31:2c:1f:d9:24:ab:ea:6a:
                    6f:a8:2e:4d:8b
                ASN1 OID: secp256k1
    Signature Algorithm: ecdsa-with-SHA256
         30:45:02:21:00:95:69:a9:7e:4d:80:23:9e:f6:25:f5:1e:68:
         00:d8:c3:21:1c:c5:05:a4:27:0b:0c:f4:1f:a0:be:21:98:e8:
         42:02:20:31:94:3f:56:8c:e7:3f:fb:6c:cc:3d:b9:b9:ef:d3:
         ba:38:34:44:69:6b:02:81:f0:1c:33:f3:7b:06:d8:dd:83
-----BEGIN CERTIFICATE-----
MIIB2zCCAYECAQMwCgYIKoZIzj0EAwIwgYUxCzAJBgNVBAYTAlVTMQswCQYDVQQI
DAJDQTESMBAGA1UEBwwJU3Vubnl2YWxlMR4wHAYDVQQKDBVSZWFsIFRpbWUgSW5u
b3ZhdGlvbnMxFjAUBgNVBAMMDUNBIENlcnQgV29ybGQxHTAbBgkqhkiG9w0BCQEW
DnNlY3VyZUBydGkuY29tMB4XDTIwMDYxNTIwNTEzMVoXDTMwMDYxMzIwNTEzMVow
cDELMAkGA1UEBhMCVVMxCzAJBgNVBAgMAkNBMR4wHAYDVQQKDBVSZWFsIFRpbWUg
SW5ub3ZhdGlvbnMxEjAQBgNVBAMMCXRyaXdyaXRlcjEgMB4GCSqGSIb3DQEJARYR
dHJpd3JpdGVyQHJ0aS5jb20wVjAQBgcqhkjOPQIBBgUrgQQACgNCAARkbfu4PACR
x02fpCQ0doLn4fcyBdguj5WTd1TLPoiBIDQi0ioGoT3Y2FnEXCezN3YxbD8xLB/Z
JKvqam+oLk2LMAoGCCqGSM49BAMCA0gAMEUCIQCVaal+TYAjnvYl9R5oANjDIRzF
BaQnCwz0H6C+IZjoQgIgMZQ/VoznP/tszD25ue/Tujg0RGlrAoHwHDPzewbY3YM=
-----END CERTIFICATE-----
