Certificate:
    Data:
        Version: 1 (0x0)
        Serial Number: 2 (0x2)
        Signature Algorithm: ecdsa-with-SHA256
        Issuer: C=US, ST=CA, L=Sunnyvale, O=Real Time Innovations, CN=CA Cert World/emailAddress=secure@rti.com
        Validity
            Not Before: Jun 15 20:50:35 2020 GMT
            Not After : Jun 13 20:50:35 2030 GMT
        Subject: C=US, ST=CA, O=Real Time Innovations, CN=trireader/emailAddress=trireader@rti.com
        Subject Public Key Info:
            Public Key Algorithm: id-ecPublicKey
                Public-Key: (256 bit)
                pub:
                    04:ed:84:9d:c5:78:bd:23:d6:a8:fd:14:a2:57:8b:
                    84:a8:31:df:9f:de:e6:0c:c9:c5:20:6e:02:4b:f4:
                    3a:ca:5c:b6:5d:fa:b0:9c:2f:9c:31:9e:0b:03:5c:
                    ab:a2:68:ac:35:30:7a:98:03:72:db:7e:03:db:d4:
                    a3:06:6a:c1:b8
                ASN1 OID: secp256k1
    Signature Algorithm: ecdsa-with-SHA256
         30:44:02:20:63:5e:57:2c:be:7a:4f:64:a9:c6:0a:48:96:64:
         05:cb:33:7a:7e:85:d3:04:46:75:f0:87:b0:bf:25:20:2c:30:
         02:20:35:47:de:63:7d:8b:9c:f6:0e:d8:3f:b9:6a:5b:ae:09:
         50:eb:65:28:37:fd:d7:78:d9:c9:df:0b:cf:ec:40:f6
-----BEGIN CERTIFICATE-----
MIIB2jCCAYECAQIwCgYIKoZIzj0EAwIwgYUxCzAJBgNVBAYTAlVTMQswCQYDVQQI
DAJDQTESMBAGA1UEBwwJU3Vubnl2YWxlMR4wHAYDVQQKDBVSZWFsIFRpbWUgSW5u
b3ZhdGlvbnMxFjAUBgNVBAMMDUNBIENlcnQgV29ybGQxHTAbBgkqhkiG9w0BCQEW
DnNlY3VyZUBydGkuY29tMB4XDTIwMDYxNTIwNTAzNVoXDTMwMDYxMzIwNTAzNVow
cDELMAkGA1UEBhMCVVMxCzAJBgNVBAgMAkNBMR4wHAYDVQQKDBVSZWFsIFRpbWUg
SW5ub3ZhdGlvbnMxEjAQBgNVBAMMCXRyaXJlYWRlcjEgMB4GCSqGSIb3DQEJARYR
dHJpcmVhZGVyQHJ0aS5jb20wVjAQBgcqhkjOPQIBBgUrgQQACgNCAATthJ3FeL0j
1qj9FKJXi4SoMd+f3uYMycUgbgJL9DrKXLZd+rCcL5wxngsDXKuiaKw1MHqYA3Lb
fgPb1KMGasG4MAoGCCqGSM49BAMCA0cAMEQCIGNeVyy+ek9kqcYKSJZkBcszen6F
0wRGdfCHsL8lICwwAiA1R95jfYuc9g7YP7lqW64JUOtlKDf913jZyd8Lz+xA9g==
-----END CERTIFICATE-----
