Certificate:
    Data:
        Version: 1 (0x0)
        Serial Number: 2 (0x2)
        Signature Algorithm: ecdsa-with-SHA384
        Issuer: C=US, ST=CA, L=Sunnyvale, O=Real Time Innovations, CN=CA Cert World/emailAddress=secure@rti.com
        Validity
            Not Before: May  3 20:51:30 2023 GMT
            Not After : Apr 30 20:51:30 2033 GMT
        Subject: C=US, ST=CA, O=Real Time Innovations, CN=trireader/emailAddress=trireader@rti.com
        Subject Public Key Info:
            Public Key Algorithm: id-ecPublicKey
                Public-Key: (384 bit)
                pub:
                    04:f6:e9:f9:1d:ef:54:0d:0a:d8:ff:92:6e:81:f7:
                    de:bf:64:ed:a6:68:6d:90:c8:92:cd:66:49:c9:8c:
                    b1:4e:b0:7a:dd:48:4c:c8:30:0c:75:bc:99:86:19:
                    c2:bf:86:3e:3a:89:7f:d9:69:a4:8b:43:f9:54:93:
                    0e:8b:50:0d:5a:7c:ff:52:78:95:48:f8:86:d4:4a:
                    9b:13:aa:d8:27:3e:aa:49:d1:e7:13:f0:e8:17:71:
                    1a:bd:c3:e5:ce:8d:f8
                ASN1 OID: secp384r1
                NIST CURVE: P-384
    Signature Algorithm: ecdsa-with-SHA384
    Signature Value:
        30:64:02:30:3f:b7:25:40:e6:82:43:e7:c9:6e:b8:36:10:6f:
        23:5f:51:56:0a:e3:1b:3a:28:ce:88:fd:9d:b4:c9:b2:46:86:
        b1:1e:38:b8:31:bd:af:26:4e:37:9f:e8:97:bc:76:6a:02:30:
        40:ed:f7:83:0a:1b:9a:0a:1b:de:a9:3f:d4:02:8e:70:42:42:
        b9:12:5e:1d:fc:30:89:ce:c5:e0:d1:35:73:eb:93:1f:c9:ba:
        53:9a:ca:bf:bc:94:b2:86:bd:17:4f:52
-----BEGIN CERTIFICATE-----
MIICGjCCAaECAQIwCgYIKoZIzj0EAwMwgYUxCzAJBgNVBAYTAlVTMQswCQYDVQQI
DAJDQTESMBAGA1UEBwwJU3Vubnl2YWxlMR4wHAYDVQQKDBVSZWFsIFRpbWUgSW5u
b3ZhdGlvbnMxFjAUBgNVBAMMDUNBIENlcnQgV29ybGQxHTAbBgkqhkiG9w0BCQEW
DnNlY3VyZUBydGkuY29tMB4XDTIzMDUwMzIwNTEzMFoXDTMzMDQzMDIwNTEzMFow
cDELMAkGA1UEBhMCVVMxCzAJBgNVBAgMAkNBMR4wHAYDVQQKDBVSZWFsIFRpbWUg
SW5ub3ZhdGlvbnMxEjAQBgNVBAMMCXRyaXJlYWRlcjEgMB4GCSqGSIb3DQEJARYR
dHJpcmVhZGVyQHJ0aS5jb20wdjAQBgcqhkjOPQIBBgUrgQQAIgNiAAT26fkd71QN
Ctj/km6B996/ZO2maG2QyJLNZknJjLFOsHrdSEzIMAx1vJmGGcK/hj46iX/ZaaSL
Q/lUkw6LUA1afP9SeJVI+IbUSpsTqtgnPqpJ0ecT8OgXcRq9w+XOjfgwCgYIKoZI
zj0EAwMDZwAwZAIwP7clQOaCQ+fJbrg2EG8jX1FWCuMbOijOiP2dtMmyRoaxHji4
Mb2vJk43n+iXvHZqAjBA7feDChuaChveqT/UAo5wQkK5El4d/DCJzsXg0TVz65Mf
ybpTmsq/vJSyhr0XT1I=
-----END CERTIFICATE-----
