Certificate:
    Data:
        Version: 1 (0x0)
        Serial Number: 2 (0x2)
        Signature Algorithm: ecdsa-with-SHA256
        Issuer: C=US, ST=CA, L=Sunnyvale, O=Real Time Innovations, CN=CA Cert World/emailAddress=secure@rti.com
        Validity
            Not Before: Aug 24 21:14:41 2023 GMT
            Not After : Aug 21 21:14:41 2033 GMT
        Subject: C=US, ST=CA, O=Real Time Innovations, CN=trireader/emailAddress=trireader@rti.com
        Subject Public Key Info:
            Public Key Algorithm: id-ecPublicKey
                Public-Key: (256 bit)
                pub:
                    04:85:4a:b0:bb:39:08:97:a9:63:4f:0b:92:cf:37:
                    57:dc:95:f5:a7:24:b6:89:7e:50:50:89:8c:fa:d8:
                    53:03:7c:00:5f:a9:be:f0:0a:f5:05:9b:9d:05:84:
                    7a:31:cd:53:59:56:3d:9f:f0:54:a1:66:05:d8:8a:
                    6e:3b:b6:b5:63
                ASN1 OID: prime256v1
                NIST CURVE: P-256
    Signature Algorithm: ecdsa-with-SHA256
    Signature Value:
        30:46:02:21:00:c3:13:68:90:86:26:e8:10:b4:e8:0e:f5:ff:
        95:08:a6:fd:6f:19:50:ee:52:ee:f5:55:c6:cd:f3:99:27:39:
        4b:02:21:00:cd:5b:40:f6:b7:0d:6d:5d:55:95:82:7e:fc:62:
        f7:4d:9b:66:91:49:cc:48:b3:5b:2a:01:a1:01:52:6d:c8:9f
-----BEGIN CERTIFICATE-----
MIIB3zCCAYQCAQIwCgYIKoZIzj0EAwIwgYUxCzAJBgNVBAYTAlVTMQswCQYDVQQI
DAJDQTESMBAGA1UEBwwJU3Vubnl2YWxlMR4wHAYDVQQKDBVSZWFsIFRpbWUgSW5u
b3ZhdGlvbnMxFjAUBgNVBAMMDUNBIENlcnQgV29ybGQxHTAbBgkqhkiG9w0BCQEW
DnNlY3VyZUBydGkuY29tMB4XDTIzMDgyNDIxMTQ0MVoXDTMzMDgyMTIxMTQ0MVow
cDELMAkGA1UEBhMCVVMxCzAJBgNVBAgMAkNBMR4wHAYDVQQKDBVSZWFsIFRpbWUg
SW5ub3ZhdGlvbnMxEjAQBgNVBAMMCXRyaXJlYWRlcjEgMB4GCSqGSIb3DQEJARYR
dHJpcmVhZGVyQHJ0aS5jb20wWTATBgcqhkjOPQIBBggqhkjOPQMBBwNCAASFSrC7
OQiXqWNPC5LPN1fclfWnJLaJflBQiYz62FMDfABfqb7wCvUFm50FhHoxzVNZVj2f
8FShZgXYim47trVjMAoGCCqGSM49BAMCA0kAMEYCIQDDE2iQhiboELToDvX/lQim
/W8ZUO5S7vVVxs3zmSc5SwIhAM1bQPa3DW1dVZWCfvxi902bZpFJzEizWyoBoQFS
bcif
-----END CERTIFICATE-----
