Certificate:
    Data:
        Version: 1 (0x0)
        Serial Number:
            3a:c9:18:c6:19:fb:65:88:b4:06:d5:ba:15:e9:f6:38:3d:74:2e:48
        Signature Algorithm: ecdsa-with-SHA384
        Issuer: C = US, ST = CA, L = Sunnyvale, O = Real Time Innovations, CN = CA Cert World, emailAddress = secure@rti.com
        Validity
            Not Before: May  3 20:48:36 2023 GMT
            Not After : Apr 30 20:48:36 2033 GMT
        Subject: C = US, ST = CA, L = Sunnyvale, O = Real Time Innovations, CN = CA Cert World, emailAddress = secure@rti.com
        Subject Public Key Info:
            Public Key Algorithm: id-ecPublicKey
                Public-Key: (384 bit)
                pub:
                    04:b9:35:66:27:7e:37:9c:0c:25:4b:22:81:28:86:
                    ee:ce:df:cb:f7:22:b4:ef:c4:52:af:f3:56:e2:ea:
                    3a:aa:1b:1b:1f:40:b0:f6:9e:bf:d7:b2:32:5a:b5:
                    9b:4e:45:b3:3a:63:08:98:ae:44:e8:56:45:76:71:
                    97:02:5d:68:fd:1a:6a:c1:12:f3:a5:ed:d9:62:de:
                    24:46:fa:35:c3:15:14:29:81:43:15:78:17:34:8d:
                    e9:57:31:45:11:c9:05
                ASN1 OID: secp384r1
                NIST CURVE: P-384
    Signature Algorithm: ecdsa-with-SHA384
    Signature Value:
        30:64:02:30:38:cb:6f:bf:1c:22:c1:99:0a:71:1e:de:62:db:
        43:b6:80:c8:c1:7e:ee:42:f3:ec:cc:30:21:81:8e:c5:70:16:
        a6:e3:2c:75:b9:3d:ee:58:01:5c:39:47:77:6f:f8:47:02:30:
        1c:08:68:e6:6e:13:a7:e6:06:ff:fc:1b:60:2d:50:b9:e0:57:
        13:1a:05:02:10:f4:a5:ec:7f:fd:9d:ba:94:af:1b:92:3c:4b:
        76:c4:59:45:f5:8e:30:16:56:36:56:55
-----BEGIN CERTIFICATE-----
MIICQzCCAcoCFDrJGMYZ+2WItAbVuhXp9jg9dC5IMAoGCCqGSM49BAMDMIGFMQsw
CQYDVQQGEwJVUzELMAkGA1UECAwCQ0ExEjAQBgNVBAcMCVN1bm55dmFsZTEeMBwG
A1UECgwVUmVhbCBUaW1lIElubm92YXRpb25zMRYwFAYDVQQDDA1DQSBDZXJ0IFdv
cmxkMR0wGwYJKoZIhvcNAQkBFg5zZWN1cmVAcnRpLmNvbTAeFw0yMzA1MDMyMDQ4
MzZaFw0zMzA0MzAyMDQ4MzZaMIGFMQswCQYDVQQGEwJVUzELMAkGA1UECAwCQ0Ex
EjAQBgNVBAcMCVN1bm55dmFsZTEeMBwGA1UECgwVUmVhbCBUaW1lIElubm92YXRp
b25zMRYwFAYDVQQDDA1DQSBDZXJ0IFdvcmxkMR0wGwYJKoZIhvcNAQkBFg5zZWN1
cmVAcnRpLmNvbTB2MBAGByqGSM49AgEGBSuBBAAiA2IABLk1Zid+N5wMJUsigSiG
7s7fy/citO/EUq/zVuLqOqobGx9AsPaev9eyMlq1m05FszpjCJiuROhWRXZxlwJd
aP0aasES86Xt2WLeJEb6NcMVFCmBQxV4FzSN6VcxRRHJBTAKBggqhkjOPQQDAwNn
ADBkAjA4y2+/HCLBmQpxHt5i20O2gMjBfu5C8+zMMCGBjsVwFqbjLHW5Pe5YAVw5
R3dv+EcCMBwIaOZuE6fmBv/8G2AtULngVxMaBQIQ9KXsf/2dupSvG5I8S3bEWUX1
jjAWVjZWVQ==
-----END CERTIFICATE-----
