Certificate:
    Data:
        Version: 1 (0x0)
        Serial Number:
            10:56:61:89:b4:a7:6e:cb:6b:7e:59:e4:e2:f4:1f:4d:b1:4c:52:fd
        Signature Algorithm: NULL
        Issuer: C = US, ST = CA, L = Sunnyvale, O = Real Time Innovations, CN = RTI Cert World, emailAddress = permissions@rti.com
        Validity
            Not Before: Jun 15 20:41:28 2020 GMT
            Not After : Jun 13 20:41:28 2030 GMT
        Subject: C = US, ST = CA, L = Sunnyvale, O = Real Time Innovations, CN = RTI Cert World, emailAddress = permissions@rti.com
        Subject Public Key Info:
            Public Key Algorithm: id-ecPublicKey
                Public-Key: (256 bit)
                pub:
                    04:32:87:bb:4e:32:57:32:48:d0:3b:29:64:22:32:
                    ea:d5:2a:ee:5a:4c:4d:8d:e0:af:6e:f5:6c:34:37:
                    1a:94:67:39:f2:39:c2:94:5e:02:2f:56:cc:69:b2:
                    ae:56:7f:bf:59:3d:27:ae:59:3d:51:eb:89:a1:c9:
                    b2:99:c6:7d:24
                ASN1 OID: secp256k1
    Signature Algorithm: NULL
-----BEGIN CERTIFICATE-----
MIICETCCAbYCFBBWYYm0p27La35Z5OL0H02xTFL9MAoGCCqGSM49BAMCMIGLMQsw
CQYDVQQGEwJVUzELMAkGA1UECAwCQ0ExEjAQBgNVBAcMCVN1bm55dmFsZTEeMBwG
A1UECgwVUmVhbCBUaW1lIElubm92YXRpb25zMRcwFQYDVQQDDA5SVEkgQ2VydCBX
b3JsZDEiMCAGCSqGSIb3DQEJARYTcGVybWlzc2lvbnNAcnRpLmNvbTAeFw0yMDA2
MTUyMDQxMjhaFw0zMDA2MTMyMDQxMjhaMIGLMQswCQYDVQQGEwJVUzELMAkGA1UE
CAwCQ0ExEjAQBgNVBAcMCVN1bm55dmFsZTEeMBwGA1UECgwVUmVhbCBUaW1lIElu
bm92YXRpb25zMRcwFQYDVQQDDA5SVEkgQ2VydCBXb3JsZDEiMCAGCSqGSIb3DQEJ
ARYTcGVybWlzc2lvbnNAcnRpLmNvbTBWMBAGByqGSM49AgEGBSuBBAAKA0IABDKH
u04yVzJI0DspZCIy6tUq7lpMTY3gr271bDQ3GpRnOfI5wpReAi9WzGmyrlZ/v1k9
J65ZPVHriaHJspnGfSQwCgYIKoZIzj0EAwIDSQAwRgIhAOD+l9Ee9aqimQ9cSsnd
woxmKWdKjWxMz0rlcx/LLgWMAiEAheA53ndWPbYsIKbM0a4rISPvyTmOtIZzzr6F
OWUxnPQ=
-----END CERTIFICATE-----
