Certificate:
    Data:
        Version: 1 (0x0)
        Serial Number: 4 (0x4)
        Signature Algorithm: ecdsa-with-SHA384
        Issuer: C=US, ST=CA, L=Sunnyvale, O=Real Time Innovations, CN=CA Cert World/emailAddress=secure@rti.com
        Validity
            Not Before: May  3 20:52:49 2023 GMT
            Not After : Apr 30 20:52:49 2033 GMT
        Subject: C=US, ST=CA, O=Real Time Innovations, CN=routing/emailAddress=routing@rti.com
        Subject Public Key Info:
            Public Key Algorithm: id-ecPublicKey
                Public-Key: (384 bit)
                pub:
                    04:0a:dc:50:e7:dc:79:79:f1:1c:87:bc:6c:92:e0:
                    3f:35:86:a0:94:9e:5d:f3:27:89:98:df:ad:57:7c:
                    7d:e6:ec:36:b9:67:94:b1:62:ea:29:84:0e:cd:d1:
                    54:1c:b0:6e:f1:ca:48:0e:f0:c8:34:8b:3e:ee:b1:
                    22:11:dd:e9:e1:5e:c5:5a:a7:55:dc:27:23:b8:ec:
                    dc:59:3a:ec:35:69:28:80:ce:d2:e9:ea:03:88:7f:
                    02:03:68:c8:fa:ef:00
                ASN1 OID: secp384r1
                NIST CURVE: P-384
    Signature Algorithm: ecdsa-with-SHA384
    Signature Value:
        30:66:02:31:00:b4:8b:97:96:a1:a3:c5:b8:4c:2e:c6:f9:bb:
        9c:c9:71:ae:28:da:af:4f:ad:2f:63:20:ad:5b:3c:1a:3e:39:
        f8:ca:aa:75:f4:3b:a5:17:26:44:48:d2:77:f1:c7:0d:02:02:
        31:00:80:4e:c0:21:89:49:e4:4c:29:4b:cd:15:85:f2:a7:45:
        30:9c:f5:57:40:c4:38:f9:7e:8f:9f:5b:f6:6b:10:ee:f1:d8:
        46:74:d7:dc:3c:a2:53:99:f7:d3:3d:b8:d6:80
-----BEGIN CERTIFICATE-----
MIICGDCCAZ0CAQQwCgYIKoZIzj0EAwMwgYUxCzAJBgNVBAYTAlVTMQswCQYDVQQI
DAJDQTESMBAGA1UEBwwJU3Vubnl2YWxlMR4wHAYDVQQKDBVSZWFsIFRpbWUgSW5u
b3ZhdGlvbnMxFjAUBgNVBAMMDUNBIENlcnQgV29ybGQxHTAbBgkqhkiG9w0BCQEW
DnNlY3VyZUBydGkuY29tMB4XDTIzMDUwMzIwNTI0OVoXDTMzMDQzMDIwNTI0OVow
bDELMAkGA1UEBhMCVVMxCzAJBgNVBAgMAkNBMR4wHAYDVQQKDBVSZWFsIFRpbWUg
SW5ub3ZhdGlvbnMxEDAOBgNVBAMMB3JvdXRpbmcxHjAcBgkqhkiG9w0BCQEWD3Jv
dXRpbmdAcnRpLmNvbTB2MBAGByqGSM49AgEGBSuBBAAiA2IABArcUOfceXnxHIe8
bJLgPzWGoJSeXfMniZjfrVd8febsNrlnlLFi6imEDs3RVBywbvHKSA7wyDSLPu6x
IhHd6eFexVqnVdwnI7js3Fk67DVpKIDO0unqA4h/AgNoyPrvADAKBggqhkjOPQQD
AwNpADBmAjEAtIuXlqGjxbhMLsb5u5zJca4o2q9PrS9jIK1bPBo+OfjKqnX0O6UX
JkRI0nfxxw0CAjEAgE7AIYlJ5EwpS80VhfKnRTCc9VdAxDj5fo+fW/ZrEO7x2EZ0
19w8olOZ99M9uNaA
-----END CERTIFICATE-----
