Certificate:
    Data:
        Version: 1 (0x0)
        Serial Number: 4 (0x4)
        Signature Algorithm: ecdsa-with-SHA256
        Issuer: C=US, ST=CA, L=Sunnyvale, O=Real Time Innovations, CN=CA Cert World/emailAddress=secure@rti.com
        Validity
            Not Before: Aug 24 21:15:13 2023 GMT
            Not After : Aug 21 21:15:13 2033 GMT
        Subject: C=US, ST=CA, O=Real Time Innovations, CN=routing/emailAddress=routing@rti.com
        Subject Public Key Info:
            Public Key Algorithm: id-ecPublicKey
                Public-Key: (256 bit)
                pub:
                    04:6c:8b:97:a5:18:d7:0f:47:f4:98:e5:d0:e0:e5:
                    af:fa:33:35:ca:ec:db:e7:1d:90:d4:f7:14:51:9a:
                    16:e1:4f:98:d4:c8:56:79:0e:a9:f9:e2:f3:0a:e6:
                    ed:83:a3:87:c3:ed:f6:69:e3:a7:ec:ae:b4:51:3a:
                    2c:09:42:93:22
                ASN1 OID: prime256v1
                NIST CURVE: P-256
    Signature Algorithm: ecdsa-with-SHA256
    Signature Value:
        30:46:02:21:00:c9:4c:c5:8d:5f:fc:36:70:9d:f8:1b:87:a7:
        72:c3:3f:2b:d9:13:ba:4a:37:7a:1c:69:27:d9:46:39:da:42:
        ca:02:21:00:f9:54:b1:41:18:20:e0:dd:40:47:d5:c9:64:28:
        47:34:10:39:f4:39:61:61:fd:b9:34:3d:d5:30:2a:d6:1d:ff
-----BEGIN CERTIFICATE-----
MIIB2zCCAYACAQQwCgYIKoZIzj0EAwIwgYUxCzAJBgNVBAYTAlVTMQswCQYDVQQI
DAJDQTESMBAGA1UEBwwJU3Vubnl2YWxlMR4wHAYDVQQKDBVSZWFsIFRpbWUgSW5u
b3ZhdGlvbnMxFjAUBgNVBAMMDUNBIENlcnQgV29ybGQxHTAbBgkqhkiG9w0BCQEW
DnNlY3VyZUBydGkuY29tMB4XDTIzMDgyNDIxMTUxM1oXDTMzMDgyMTIxMTUxM1ow
bDELMAkGA1UEBhMCVVMxCzAJBgNVBAgMAkNBMR4wHAYDVQQKDBVSZWFsIFRpbWUg
SW5ub3ZhdGlvbnMxEDAOBgNVBAMMB3JvdXRpbmcxHjAcBgkqhkiG9w0BCQEWD3Jv
dXRpbmdAcnRpLmNvbTBZMBMGByqGSM49AgEGCCqGSM49AwEHA0IABGyLl6UY1w9H
9Jjl0ODlr/ozNcrs2+cdkNT3FFGaFuFPmNTIVnkOqfni8wrm7YOjh8Pt9mnjp+yu
tFE6LAlCkyIwCgYIKoZIzj0EAwIDSQAwRgIhAMlMxY1f/DZwnfgbh6dywz8r2RO6
Sjd6HGkn2UY52kLKAiEA+VSxQRgg4N1AR9XJZChHNBA59DlhYf25ND3VMCrWHf8=
-----END CERTIFICATE-----
