Certificate:
    Data:
        Version: 1 (0x0)
        Serial Number: 1 (0x1)
        Signature Algorithm: ecdsa-with-SHA256
        Issuer: C=US, ST=CA, L=Sunnyvale, O=Real Time Innovations, CN=CA Cert World/emailAddress=secure@rti.com
        Validity
            Not Before: Jun 15 20:48:40 2020 GMT
            Not After : Jun 13 20:48:40 2030 GMT
        Subject: C=US, ST=CA, O=Real Time Innovations, CN=tools/emailAddress=tools@rti.com
        Subject Public Key Info:
            Public Key Algorithm: id-ecPublicKey
                Public-Key: (256 bit)
                pub:
                    04:63:07:c7:dd:26:98:eb:fe:25:63:2b:7d:09:2b:
                    ce:27:33:db:10:7e:93:f6:fc:74:08:06:81:9a:0c:
                    b1:2c:95:f4:db:76:55:9b:38:45:b4:4b:32:8d:3b:
                    2b:fe:a4:4d:58:d1:7f:f4:fa:ef:c5:80:3e:1f:4e:
                    f1:e4:2a:30:44
                ASN1 OID: secp256k1
    Signature Algorithm: ecdsa-with-SHA256
         30:45:02:21:00:d3:5a:f6:d6:09:a3:3c:26:c4:e9:d4:69:fc:
         d4:e3:ba:5f:67:ca:aa:c8:b1:b7:b0:fe:ed:45:69:a3:b9:36:
         4c:02:20:00:c2:66:d0:b6:11:a8:73:2a:2c:af:52:d2:c0:d2:
         d1:f2:ac:b9:b9:93:bc:5d:51:85:35:bd:da:03:8f:ab:34
-----BEGIN CERTIFICATE-----
MIIB0zCCAXkCAQEwCgYIKoZIzj0EAwIwgYUxCzAJBgNVBAYTAlVTMQswCQYDVQQI
DAJDQTESMBAGA1UEBwwJU3Vubnl2YWxlMR4wHAYDVQQKDBVSZWFsIFRpbWUgSW5u
b3ZhdGlvbnMxFjAUBgNVBAMMDUNBIENlcnQgV29ybGQxHTAbBgkqhkiG9w0BCQEW
DnNlY3VyZUBydGkuY29tMB4XDTIwMDYxNTIwNDg0MFoXDTMwMDYxMzIwNDg0MFow
aDELMAkGA1UEBhMCVVMxCzAJBgNVBAgMAkNBMR4wHAYDVQQKDBVSZWFsIFRpbWUg
SW5ub3ZhdGlvbnMxDjAMBgNVBAMMBXRvb2xzMRwwGgYJKoZIhvcNAQkBFg10b29s
c0BydGkuY29tMFYwEAYHKoZIzj0CAQYFK4EEAAoDQgAEYwfH3SaY6/4lYyt9CSvO
JzPbEH6T9vx0CAaBmgyxLJX023ZVmzhFtEsyjTsr/qRNWNF/9PrvxYA+H07x5Cow
RDAKBggqhkjOPQQDAgNIADBFAiEA01r21gmjPCbE6dRp/NTjul9nyqrIsbew/u1F
aaO5NkwCIADCZtC2EahzKiyvUtLA0tHyrLm5k7xdUYU1vdoDj6s0
-----END CERTIFICATE-----
