Certificate:
    Data:
        Version: 1 (0x0)
        Serial Number: 3 (0x3)
        Signature Algorithm: sha256WithRSAEncryption
        Issuer: C=US, ST=CA, L=Sunnyvale, O=Real Time Innovations, CN=CA Cert World/emailAddress=secure@rti.com
        Validity
            Not Before: May 17 22:23:54 2020 GMT
            Not After : May 17 22:23:54 2021 GMT
        Subject: C=US, ST=NC, O=Real Time Innovations, CN=tools/emailAddress=tools@rti.com
        Subject Public Key Info:
            Public Key Algorithm: rsaEncryption
                RSA Public-Key: (2048 bit)
                Modulus:
                    00:c1:dd:8d:27:24:49:8b:73:5a:75:3d:cd:74:f4:
                    c0:f3:a1:76:63:a1:95:d3:a2:da:34:9a:7a:2a:29:
                    53:be:3e:6c:15:31:36:79:99:01:18:6d:8a:08:45:
                    af:90:e9:99:95:25:bc:b9:42:d6:48:c5:ae:f1:b4:
                    f4:75:ff:4c:7d:b3:05:93:91:c0:eb:cc:ba:d6:24:
                    5c:b4:f9:6e:db:54:be:30:6c:77:84:a8:17:42:ae:
                    44:e5:b0:bb:01:f5:f8:8c:49:75:8c:be:bc:b8:18:
                    de:29:be:5d:ef:a3:d8:eb:11:c3:d3:75:13:50:f8:
                    46:06:ad:aa:4e:c1:6a:3c:54:b4:96:f6:b7:3f:9f:
                    86:55:95:17:84:67:f9:37:66:40:e4:0d:d6:fe:63:
                    e1:7b:bc:a5:90:ba:c5:40:8c:80:78:b4:4a:a2:8e:
                    89:d0:00:0b:ad:d4:60:28:2a:20:75:f0:1b:b7:d7:
                    59:40:1d:7f:d1:fe:9e:e4:f4:cf:f9:51:bc:e6:10:
                    2a:e7:87:a4:20:31:63:4a:ee:d1:be:7b:f0:0b:89:
                    fe:b7:16:f1:fe:03:9e:b4:a7:92:08:a0:16:6f:0b:
                    af:f5:98:39:2c:f2:45:85:cb:50:81:7c:0a:e6:0f:
                    ee:8b:8d:b5:6d:32:66:ad:43:15:c5:22:39:ab:d3:
                    b0:21
                Exponent: 65537 (0x10001)
    Signature Algorithm: sha256WithRSAEncryption
         5c:30:c4:f9:dd:a8:5e:a8:c5:6d:a2:6c:05:e1:1f:5d:01:6e:
         38:62:3e:aa:82:66:ec:0c:2c:c9:9a:c9:da:b7:47:87:58:c7:
         6d:2e:11:87:4e:ca:d5:af:b9:5a:1c:3e:74:ac:7d:24:b0:71:
         aa:5e:3f:c0:4d:eb:f1:a6:fb:b4:29:4b:7a:52:a7:cf:79:90:
         48:56:97:78:13:fd:a0:17:fc:c6:1d:5c:3d:d8:06:c2:0b:76:
         ce:6c:d7:5e:3b:7b:ce:a8:10:c6:97:b4:aa:f7:ee:c5:7a:c8:
         6d:db:aa:8d:fa:2a:d1:b5:aa:36:4a:d5:e8:91:5c:bc:4f:7d:
         b3:ad:04:80:57:69:b6:0b:24:13:4e:c4:e2:f1:fd:e6:64:5e:
         88:aa:60:eb:bd:14:15:e9:92:6b:d6:42:1f:c7:7a:df:89:54:
         f1:4d:f2:a4:06:38:1b:3c:67:41:70:96:cc:4d:bf:19:a5:8b:
         1c:11:df:e4:d5:34:b3:eb:1a:f9:a7:2a:1d:d2:57:ad:28:20:
         b6:08:bb:01:b2:f7:b9:51:75:6d:ca:95:8e:8d:21:81:cd:7e:
         24:e0:d7:9f:2e:25:77:4c:85:67:a7:e1:7d:84:02:c4:2d:a3:
         c9:90:9a:2b:47:fc:8f:5b:46:d5:28:c0:79:91:62:45:49:40:
         fe:ea:fb:ca
-----BEGIN CERTIFICATE-----
MIIDYjCCAkoCAQMwDQYJKoZIhvcNAQELBQAwgYUxCzAJBgNVBAYTAlVTMQswCQYD
VQQIDAJDQTESMBAGA1UEBwwJU3Vubnl2YWxlMR4wHAYDVQQKDBVSZWFsIFRpbWUg
SW5ub3ZhdGlvbnMxFjAUBgNVBAMMDUNBIENlcnQgV29ybGQxHTAbBgkqhkiG9w0B
CQEWDnNlY3VyZUBydGkuY29tMB4XDTIwMDUxNzIyMjM1NFoXDTIxMDUxNzIyMjM1
NFowaDELMAkGA1UEBhMCVVMxCzAJBgNVBAgMAk5DMR4wHAYDVQQKDBVSZWFsIFRp
bWUgSW5ub3ZhdGlvbnMxDjAMBgNVBAMMBXRvb2xzMRwwGgYJKoZIhvcNAQkBFg10
b29sc0BydGkuY29tMIIBIjANBgkqhkiG9w0BAQEFAAOCAQ8AMIIBCgKCAQEAwd2N
JyRJi3NadT3NdPTA86F2Y6GV06LaNJp6KilTvj5sFTE2eZkBGG2KCEWvkOmZlSW8
uULWSMWu8bT0df9MfbMFk5HA68y61iRctPlu21S+MGx3hKgXQq5E5bC7AfX4jEl1
jL68uBjeKb5d76PY6xHD03UTUPhGBq2qTsFqPFS0lva3P5+GVZUXhGf5N2ZA5A3W
/mPhe7ylkLrFQIyAeLRKoo6J0AALrdRgKCogdfAbt9dZQB1/0f6e5PTP+VG85hAq
54ekIDFjSu7RvnvwC4n+txbx/gOetKeSCKAWbwuv9Zg5LPJFhctQgXwK5g/ui421
bTJmrUMVxSI5q9OwIQIDAQABMA0GCSqGSIb3DQEBCwUAA4IBAQBcMMT53aheqMVt
omwF4R9dAW44Yj6qgmbsDCzJmsnat0eHWMdtLhGHTsrVr7laHD50rH0ksHGqXj/A
Tevxpvu0KUt6UqfPeZBIVpd4E/2gF/zGHVw92AbCC3bObNdeO3vOqBDGl7Sq9+7F
esht26qN+irRtao2StXokVy8T32zrQSAV2m2CyQTTsTi8f3mZF6IqmDrvRQV6ZJr
1kIfx3rfiVTxTfKkBjgbPGdBcJbMTb8ZpYscEd/k1TSz6xr5pyod0letKCC2CLsB
sve5UXVtypWOjSGBzX4k4NefLiV3TIVnp+F9hALELaPJkJorR/yPW0bVKMB5kWJF
SUD+6vvK
-----END CERTIFICATE-----
