Certificate:
    Data:
        Version: 1 (0x0)
        Serial Number: 3 (0x3)
        Signature Algorithm: ecdsa-with-SHA256
        Issuer: C=US, ST=CA, L=Sunnyvale, O=Real Time Innovations, CN=CA Cert World/emailAddress=secure@rti.com
        Validity
            Not Before: Aug 24 21:15:00 2023 GMT
            Not After : Aug 21 21:15:00 2033 GMT
        Subject: C=US, ST=CA, O=Real Time Innovations, CN=tools/emailAddress=tools@rti.com
        Subject Public Key Info:
            Public Key Algorithm: id-ecPublicKey
                Public-Key: (256 bit)
                pub:
                    04:a4:ae:22:a8:c5:6b:f9:af:56:68:b1:ae:af:03:
                    77:ce:8b:fc:ac:4e:95:24:44:5f:a5:27:03:f3:89:
                    2b:6e:9c:e5:08:66:1d:9b:e8:93:6a:06:36:de:ab:
                    ba:f0:76:c9:78:33:92:7e:00:22:5e:65:84:cc:7c:
                    72:d6:13:63:af
                ASN1 OID: prime256v1
                NIST CURVE: P-256
    Signature Algorithm: ecdsa-with-SHA256
    Signature Value:
        30:46:02:21:00:b9:ca:c9:b5:d0:bf:ed:19:d5:a6:2e:4c:0f:
        77:54:74:a5:29:d2:8f:c0:5c:67:8a:ff:48:7d:44:20:66:a0:
        d7:02:21:00:a4:7c:de:e9:2a:4b:9e:82:b7:bc:a2:35:27:3a:
        9c:25:a6:4a:33:ee:01:ae:de:94:48:fa:01:e7:00:96:c0:55
-----BEGIN CERTIFICATE-----
MIIB1zCCAXwCAQMwCgYIKoZIzj0EAwIwgYUxCzAJBgNVBAYTAlVTMQswCQYDVQQI
DAJDQTESMBAGA1UEBwwJU3Vubnl2YWxlMR4wHAYDVQQKDBVSZWFsIFRpbWUgSW5u
b3ZhdGlvbnMxFjAUBgNVBAMMDUNBIENlcnQgV29ybGQxHTAbBgkqhkiG9w0BCQEW
DnNlY3VyZUBydGkuY29tMB4XDTIzMDgyNDIxMTUwMFoXDTMzMDgyMTIxMTUwMFow
aDELMAkGA1UEBhMCVVMxCzAJBgNVBAgMAkNBMR4wHAYDVQQKDBVSZWFsIFRpbWUg
SW5ub3ZhdGlvbnMxDjAMBgNVBAMMBXRvb2xzMRwwGgYJKoZIhvcNAQkBFg10b29s
c0BydGkuY29tMFkwEwYHKoZIzj0CAQYIKoZIzj0DAQcDQgAEpK4iqMVr+a9WaLGu
rwN3zov8rE6VJERfpScD84krbpzlCGYdm+iTagY23qu68HbJeDOSfgAiXmWEzHxy
1hNjrzAKBggqhkjOPQQDAgNJADBGAiEAucrJtdC/7RnVpi5MD3dUdKUp0o/AXGeK
/0h9RCBmoNcCIQCkfN7pKkuegre8ojUnOpwlpkoz7gGu3pRI+gHnAJbAVQ==
-----END CERTIFICATE-----
